ccopy_reg
_reconstructor
p1
(cmoveit_msgs.msg._RobotState
RobotState
p2
c__builtin__
object
p3
NtRp4
(lp5
g1
(csensor_msgs.msg._JointState
JointState
p6
g3
NtRp7
(lp8
g1
(cstd_msgs.msg._Header
Header
p9
g3
NtRp10
(lp11
I0
ag1
(cgenpy.rostime
Time
p12
g3
NtRp13
(lp14
I0
aI0
abaS'/world'
p15
aba(lp16
S'joint_1'
p17
aS'joint_2'
p18
aS'joint_3'
p19
aS'joint_4'
p20
aS'joint_5'
p21
aS'joint_6'
p22
aa(F0
F0
F0
F0
F0
F0
tp23
a(ta(tabag1
(csensor_msgs.msg._MultiDOFJointState
MultiDOFJointState
p24
g3
NtRp25
(lp26
g1
(g9
g3
NtRp27
(lp28
I0
ag1
(g12
g3
NtRp29
(lp30
I0
aI0
abaS'/world'
p31
aba(lp32
a(lp33
a(lp34
a(lp35
aba(lp36
aI00
ab.